(dp1
(Vaa
p2
S'success'
p3
tp4
ccopy_reg
_reconstructor
p5
(cpyspider.libs.counter
TotalCounter
p6
c__builtin__
object
p7
NtRp8
(dp9
S'cnt'
p10
I64
sbs(Vaa
S'pending'
p11
tp12
g5
(g6
g7
NtRp13
(dp14
g10
I258
sbs.