(dp1
(Vdemo
p2
S'success'
tp3
ccopy_reg
_reconstructor
p4
(cpyspider.libs.counter
TotalCounter
p5
c__builtin__
object
p6
NtRp7
(dp8
S'cnt'
p9
I0
sbs(g2
S'pending'
tp10
g4
(g5
g6
NtRp11
(dp12
g9
I0
sbs(g2
S'failed'
tp13
g4
(g5
g6
NtRp14
(dp15
g9
I0
sbs.